target datalayout = "e-m:e-p270:32:32-p271:32:32-p272:64:64-i64:64-i128:128-f80:128-n8:16:32:64-S128"
target triple = "x86_64-pc-linux-gnu"

; Function Attrs: noinline nounwind uwtable
define internal void @add_y(i64 noundef %0, double noundef %1, ptr noundef %2, ptr noundef %3, i64 noundef %4) #2 {
  %6 = alloca i64, align 8
  %7 = alloca double, align 8
  %8 = alloca ptr, align 8
  %9 = alloca ptr, align 8
  %10 = alloca i64, align 8
  %11 = alloca i64, align 8
  %12 = alloca i32, align 4
  store i64 %0, ptr %6, align 8, !tbaa !3
  store double %1, ptr %7, align 8, !tbaa !7
  store ptr %2, ptr %8, align 8, !tbaa !9
  store ptr %3, ptr %9, align 8, !tbaa !9
  store i64 %4, ptr %10, align 8, !tbaa !3
  call void @llvm.lifetime.start.p0(i64 8, ptr %11) #4
  %13 = load i64, ptr %10, align 8, !tbaa !3
  %14 = icmp ne i64 %13, 1
  br i1 %14, label %15, label %36

15:                                               ; preds = %5
  store i64 0, ptr %11, align 8, !tbaa !3
  br label %16

16:                                               ; preds = %32, %15
  %17 = load i64, ptr %11, align 8, !tbaa !3
  %18 = load i64, ptr %6, align 8, !tbaa !3
  %19 = icmp slt i64 %17, %18
  br i1 %19, label %20, label %35

20:                                               ; preds = %16
  %21 = load ptr, ptr %8, align 8, !tbaa !9
  %22 = load i64, ptr %11, align 8, !tbaa !3
  %23 = getelementptr inbounds double, ptr %21, i64 %22
  %24 = load double, ptr %23, align 8, !tbaa !7
  %25 = load double, ptr %7, align 8, !tbaa !7
  %26 = load ptr, ptr %9, align 8, !tbaa !9
  %27 = load double, ptr %26, align 8, !tbaa !7
  %28 = call double @llvm.fmuladd.f64(double %24, double %25, double %27)
  store double %28, ptr %26, align 8, !tbaa !7
  %29 = load i64, ptr %10, align 8, !tbaa !3
  %30 = load ptr, ptr %9, align 8, !tbaa !9
  %31 = getelementptr inbounds double, ptr %30, i64 %29
  store ptr %31, ptr %9, align 8, !tbaa !9
  br label %32

32:                                               ; preds = %20
  %33 = load i64, ptr %11, align 8, !tbaa !3
  %34 = add nsw i64 %33, 1
  store i64 %34, ptr %11, align 8, !tbaa !3
  br label %16, !llvm.loop !36

35:                                               ; preds = %16
  store i32 1, ptr %12, align 4
  br label %44

36:                                               ; preds = %5
  store i64 0, ptr %11, align 8, !tbaa !3
  %37 = load i64, ptr %11, align 8, !tbaa !3
  %38 = load i64, ptr %6, align 8, !tbaa !3
  %39 = load ptr, ptr %8, align 8, !tbaa !9
  %40 = load ptr, ptr %9, align 8, !tbaa !9
  %41 = call { i64, i64 } asm sideeffect "movsd\09 ($2) , %xmm10                 \0A\09shufpd  $$0 , %xmm10 , %xmm10\09\09\0A\091:                            \0A\09movups  ($3,$0,8) , %xmm12\09\09\0A\09movups  ($4,$0,8) , %xmm11\09\09\0A\09mulpd   %xmm10   , %xmm12 \09\09\0A\09addq           $$2 , $0                 \0A\09addpd   %xmm12   , %xmm11\09\09\0A\09subq           $$2 , $1                 \0A\09movups  %xmm11, -16($4,$0,8)\09\09\0A\09jnz            1b              \0A\09", "=r,=r,r,r,r,0,1,~{cc},~{xmm10},~{xmm11},~{xmm12},~{memory},~{dirflag},~{fpsr},~{flags}"(ptr %7, ptr %39, ptr %40, i64 %37, i64 %38) #4, !srcloc !37
  %42 = extractvalue { i64, i64 } %41, 0
  %43 = extractvalue { i64, i64 } %41, 1
  store i64 %42, ptr %11, align 8, !tbaa !3
  store i64 %43, ptr %6, align 8, !tbaa !3
  store i32 0, ptr %12, align 4
  br label %44

44:                                               ; preds = %36, %35
  call void @llvm.lifetime.end.p0(i64 8, ptr %11) #4
  %45 = load i32, ptr %12, align 4
  switch i32 %45, label %47 [
    i32 0, label %46
    i32 1, label %46
  ]

46:                                               ; preds = %44, %44
  ret void

47:                                               ; preds = %44
  unreachable
}