; Function Attrs: noinline nounwind uwtable
define internal fastcc void @add_y(i64 noundef range(i64 4, 2049) %0, double noundef %1, ptr noundef %2, ptr noundef %3, i64 noundef %4) unnamed_addr #2 {
  %6 = alloca double, align 8
  store double %1, ptr %6, align 8, !tbaa !3
  %.not = icmp eq i64 %4, 1
  br i1 %.not, label %13, label %.preheader

.preheader:                                       ; preds = %5, %.preheader
  %.015 = phi i64 [ %12, %.preheader ], [ 0, %5 ]
  %.01214 = phi ptr [ %11, %.preheader ], [ %3, %5 ]
  %7 = getelementptr inbounds nuw double, ptr %2, i64 %.015
  %8 = load double, ptr %7, align 8, !tbaa !3
  %9 = load double, ptr %.01214, align 8, !tbaa !3
  %10 = tail call double @llvm.fmuladd.f64(double %8, double %1, double %9)
  store double %10, ptr %.01214, align 8, !tbaa !3
  %11 = getelementptr inbounds double, ptr %.01214, i64 %4
  %12 = add nuw nsw i64 %.015, 1
  %exitcond.not = icmp eq i64 %12, %0
  br i1 %exitcond.not, label %.loopexit, label %.preheader, !llvm.loop !32

13:                                               ; preds = %5
  %14 = call { i64, i64 } asm sideeffect "movsd\09 ($2) , %xmm10                 \0A\09shufpd  $$0 , %xmm10 , %xmm10\09\09\0A\091:                            \0A\09movups  ($3,$0,8) , %xmm12\09\09\0A\09movups  ($4,$0,8) , %xmm11\09\09\0A\09mulpd   %xmm10   , %xmm12 \09\09\0A\09addq           $$2 , $0                 \0A\09addpd   %xmm12   , %xmm11\09\09\0A\09subq           $$2 , $1                 \0A\09movups  %xmm11, -16($4,$0,8)\09\09\0A\09jnz            1b              \0A\09", "=r,=r,r,r,r,0,1,~{cc},~{xmm10},~{xmm11},~{xmm12},~{memory},~{dirflag},~{fpsr},~{flags}"(ptr nonnull %6, ptr %2, ptr %3, i64 0, i64 %0) #5, !srcloc !33
  br label %.loopexit

.loopexit:                                        ; preds = %.preheader, %13
  ret void
}